Certificate Revocation List (CRL):
        Version 1 (0x0)
        Signature Algorithm: sha256WithRSAEncryption
        Issuer: /C=US/L=CloverCA/O=CloverCA
        Last Update: Nov 24 20:28:22 2013 GMT
        Next Update: Nov 25 20:28:22 2013 GMT
No Revoked Certificates.
    Signature Algorithm: sha256WithRSAEncryption
        64:7f:31:70:00:16:24:1d:98:9d:e1:07:5f:48:24:64:11:e7:
        a8:1c:43:66:1f:4b:a2:ba:7a:b9:d2:3b:41:ba:35:2c:f6:f5:
        6f:99:e4:67:e6:ce:81:22:c3:d3:7b:b4:15:00:a3:21:d0:3a:
        d5:29:46:3a:91:60:d7:2a:70:ee:b5:a9:64:a6:c8:49:55:2d:
        9a:82:e5:53:33:ff:1d:00:43:fc:49:66:55:7f:8b:73:2d:a2:
        14:63:2d:23:e8:bc:ac:46:71:82:02:99:08:a5:c4:4f:59:d1:
        e0:cb:69:3e:35:a4:64:18:24:6e:7e:a0:90:b2:95:af:7b:a0:
        6a:d2:64:e3:29:ab:13:0d:cd:b5:da:c7:fe:ce:db:48:4d:21:
        1c:58:62:9d:1d:bc:57:05:a5:2e:46:a3:b2:a3:e8:35:07:d9:
        5e:83:cf:0c:93:f5:9a:94:b4:99:a8:7d:1b:a3:62:7f:3a:bd:
        6e:bb:0e:76:49:c7:d8:1d:ca:ff:0a:8e:74:33:3f:ca:11:95:
        ac:95:98:07:7b:57:70:08:e7:3a:92:19:1d:01:6a:54:dd:f7:
        01:94:a1:b1:36:8e:ff:28:43:63:4b:9e:f1:18:4e:a0:a0:25:
        bd:14:73:c2:d8:23:50:a5:0f:80:37:ba:ae:97:44:d6:d5:fe:
        c5:db:0e:45
-----BEGIN X509 CRL-----
MIIBeDBiMA0GCSqGSIb3DQEBCwUAMDMxCzAJBgNVBAYTAlVTMREwDwYDVQQHEwhD
bG92ZXJDQTERMA8GA1UEChMIQ2xvdmVyQ0EXDTEzMTEyNDIwMjgyMloXDTEzMTEy
NTIwMjgyMlowDQYJKoZIhvcNAQELBQADggEBAGR/MXAAFiQdmJ3hB19IJGQR56gc
Q2YfS6K6ernSO0G6NSz29W+Z5GfmzoEiw9N7tBUAoyHQOtUpRjqRYNcqcO61qWSm
yElVLZqC5VMz/x0AQ/xJZlV/i3MtohRjLSPovKxGcYICmQilxE9Z0eDLaT41pGQY
JG5+oJCyla97oGrSZOMpqxMNzbXax/7O20hNIRxYYp0dvFcFpS5Go7Kj6DUH2V6D
zwyT9ZqUtJmofRujYn86vW67DnZJx9gdyv8KjnQzP8oRlayVmAd7V3AI5zqSGR0B
alTd9wGUobE2jv8oQ2NLnvEYTqCgJb0Uc8LYI1ClD4A3uq6XRNbV/sXbDkU=
-----END X509 CRL-----
