Certificate:
    Data:
        Version: 3 (0x2)
        Serial Number:
            09:2c:34:5d:8a:0e:76:13
        Signature Algorithm: sha256WithRSAEncryption
        Issuer: C=US, L=CloverCA, O=CloverCA
        Validity
            Not Before: Nov 24 20:28:22 2013 GMT
            Not After : Apr 29 20:28:22 2193 GMT
        Subject: C=US, L=CloverOCSP, O=CloverOCSP
        Subject Public Key Info:
            Public Key Algorithm: rsaEncryption
            RSA Public Key: (2048 bit)
                Modulus (2048 bit):
                    00:c7:8d:b8:84:38:8f:22:38:e8:48:11:5d:a3:80:
                    52:94:ce:b8:42:c9:1b:1b:26:53:5b:23:29:ea:74:
                    7a:25:69:1a:34:30:25:2b:74:44:6c:0b:01:3b:64:
                    9c:fd:ba:1c:e5:ea:a6:8d:c3:42:61:80:d5:6f:e3:
                    70:92:fa:ea:77:43:72:25:49:59:ed:b0:48:7a:ce:
                    2b:a1:0c:f7:a6:d1:3c:18:c7:f5:45:89:88:a5:f8:
                    f5:74:08:f7:76:16:b3:a7:ce:c0:dd:43:20:28:6b:
                    3d:7a:8d:6d:74:8b:de:a3:52:d2:0a:82:93:3d:c2:
                    27:3f:a4:09:cd:62:85:83:51:7b:60:c0:62:78:a4:
                    b3:1e:e8:85:4f:8b:37:33:6d:1f:27:0d:cc:b2:76:
                    95:30:0b:7f:04:1e:20:eb:18:d6:2b:eb:88:dd:e1:
                    6a:a5:f8:26:ba:d4:ed:89:1c:e5:f0:5c:44:12:87:
                    7c:99:a8:9e:3c:56:f4:c3:bc:c8:e7:6b:e2:94:0d:
                    8c:99:4a:27:aa:85:e4:79:75:9a:e0:e7:e8:5b:92:
                    2f:4c:84:5e:7b:40:03:28:d1:ec:24:72:03:1c:cf:
                    c1:81:41:30:f5:ec:c0:7c:a5:c1:67:c9:99:6c:aa:
                    23:da:34:c9:d4:a9:b6:a6:41:0c:e9:6d:b4:5a:30:
                    36:27
                Exponent: 65537 (0x10001)
        X509v3 extensions:
            X509v3 Subject Key Identifier: 
                B0:D0:EA:D2:96:4A:E0:B4:D6:9E:55:11:0C:F0:81:37:D0:70:02:06
            X509v3 Authority Key Identifier: 
                keyid:67:DE:EF:A9:A9:45:DF:CC:E2:12:3F:F2:B7:BF:5F:BA:C3:3C:81:09

            X509v3 Key Usage: 
                Digital Signature, Non Repudiation, Key Encipherment, Data Encipherment, Key Agreement, Certificate Sign, CRL Sign
            X509v3 Extended Key Usage: 
                OCSP Signing
            X509v3 Basic Constraints: 
                CA:TRUE
            Netscape Comment: 
                Clover OCSP Certificate
            OCSP No Check: 

    Signature Algorithm: sha256WithRSAEncryption
        3e:b9:9c:65:1a:2d:71:25:06:35:2e:3e:52:47:7f:31:57:7b:
        f7:e7:e4:b8:84:51:89:89:bb:da:90:a6:7f:bc:7b:52:5e:6b:
        b4:9a:1b:6c:33:7d:94:d6:62:ae:6a:40:ec:84:a0:20:75:fe:
        ec:56:c0:51:a5:16:2c:72:4f:4c:6a:79:23:ba:f8:06:59:69:
        76:26:05:ee:70:dc:f9:2d:28:60:e5:90:74:71:f1:4a:a6:bf:
        60:f6:96:bd:9a:60:aa:51:a5:05:4d:b1:05:c9:b2:6b:c4:a7:
        8f:53:99:80:f3:e8:c6:c5:cc:a2:5c:e8:f8:19:ea:7f:db:aa:
        f9:6d:07:db:79:5b:ba:7e:8d:a4:34:fa:4f:3f:f4:86:15:eb:
        e1:9c:39:c4:04:04:eb:7e:1a:eb:d1:0a:f6:57:a3:11:86:76:
        87:ca:dd:7d:46:9f:34:de:4e:80:c4:42:d0:95:fc:22:35:c9:
        d0:71:a7:22:ef:bf:8d:81:70:04:5a:8b:9f:e4:e2:6d:51:80:
        05:90:38:8d:e0:d4:1c:8b:ec:e2:8a:c1:36:ef:e0:a5:04:a1:
        63:0b:54:ab:c0:3b:09:67:c2:42:ab:e8:b7:f4:5e:a1:f4:8d:
        23:28:a9:ba:83:24:26:6d:49:de:00:91:77:24:20:ec:2e:88:
        af:a8:14:dd
Certificate:
    Data:
        Version: 3 (0x2)
        Serial Number:
            09:2c:34:5d:8a:0e:76:13
        Signature Algorithm: sha256WithRSAEncryption
        Issuer: C=US, L=CloverCA, O=CloverCA
        Validity
            Not Before: Nov 24 20:28:22 2013 GMT
            Not After : Apr 29 20:28:22 2193 GMT
        Subject: C=US, L=CloverOCSP, O=CloverOCSP
        Subject Public Key Info:
            Public Key Algorithm: rsaEncryption
            RSA Public Key: (2048 bit)
                Modulus (2048 bit):
                    00:c7:8d:b8:84:38:8f:22:38:e8:48:11:5d:a3:80:
                    52:94:ce:b8:42:c9:1b:1b:26:53:5b:23:29:ea:74:
                    7a:25:69:1a:34:30:25:2b:74:44:6c:0b:01:3b:64:
                    9c:fd:ba:1c:e5:ea:a6:8d:c3:42:61:80:d5:6f:e3:
                    70:92:fa:ea:77:43:72:25:49:59:ed:b0:48:7a:ce:
                    2b:a1:0c:f7:a6:d1:3c:18:c7:f5:45:89:88:a5:f8:
                    f5:74:08:f7:76:16:b3:a7:ce:c0:dd:43:20:28:6b:
                    3d:7a:8d:6d:74:8b:de:a3:52:d2:0a:82:93:3d:c2:
                    27:3f:a4:09:cd:62:85:83:51:7b:60:c0:62:78:a4:
                    b3:1e:e8:85:4f:8b:37:33:6d:1f:27:0d:cc:b2:76:
                    95:30:0b:7f:04:1e:20:eb:18:d6:2b:eb:88:dd:e1:
                    6a:a5:f8:26:ba:d4:ed:89:1c:e5:f0:5c:44:12:87:
                    7c:99:a8:9e:3c:56:f4:c3:bc:c8:e7:6b:e2:94:0d:
                    8c:99:4a:27:aa:85:e4:79:75:9a:e0:e7:e8:5b:92:
                    2f:4c:84:5e:7b:40:03:28:d1:ec:24:72:03:1c:cf:
                    c1:81:41:30:f5:ec:c0:7c:a5:c1:67:c9:99:6c:aa:
                    23:da:34:c9:d4:a9:b6:a6:41:0c:e9:6d:b4:5a:30:
                    36:27
                Exponent: 65537 (0x10001)
        X509v3 extensions:
            X509v3 Subject Key Identifier: 
                B0:D0:EA:D2:96:4A:E0:B4:D6:9E:55:11:0C:F0:81:37:D0:70:02:06
            X509v3 Authority Key Identifier: 
                keyid:67:DE:EF:A9:A9:45:DF:CC:E2:12:3F:F2:B7:BF:5F:BA:C3:3C:81:09

            X509v3 Key Usage: 
                Digital Signature, Non Repudiation, Key Encipherment, Data Encipherment, Key Agreement, Certificate Sign, CRL Sign
            X509v3 Extended Key Usage: 
                OCSP Signing
            X509v3 Basic Constraints: 
                CA:TRUE
            Netscape Comment: 
                Clover OCSP Certificate
            OCSP No Check: 

    Signature Algorithm: sha256WithRSAEncryption
        3e:b9:9c:65:1a:2d:71:25:06:35:2e:3e:52:47:7f:31:57:7b:
        f7:e7:e4:b8:84:51:89:89:bb:da:90:a6:7f:bc:7b:52:5e:6b:
        b4:9a:1b:6c:33:7d:94:d6:62:ae:6a:40:ec:84:a0:20:75:fe:
        ec:56:c0:51:a5:16:2c:72:4f:4c:6a:79:23:ba:f8:06:59:69:
        76:26:05:ee:70:dc:f9:2d:28:60:e5:90:74:71:f1:4a:a6:bf:
        60:f6:96:bd:9a:60:aa:51:a5:05:4d:b1:05:c9:b2:6b:c4:a7:
        8f:53:99:80:f3:e8:c6:c5:cc:a2:5c:e8:f8:19:ea:7f:db:aa:
        f9:6d:07:db:79:5b:ba:7e:8d:a4:34:fa:4f:3f:f4:86:15:eb:
        e1:9c:39:c4:04:04:eb:7e:1a:eb:d1:0a:f6:57:a3:11:86:76:
        87:ca:dd:7d:46:9f:34:de:4e:80:c4:42:d0:95:fc:22:35:c9:
        d0:71:a7:22:ef:bf:8d:81:70:04:5a:8b:9f:e4:e2:6d:51:80:
        05:90:38:8d:e0:d4:1c:8b:ec:e2:8a:c1:36:ef:e0:a5:04:a1:
        63:0b:54:ab:c0:3b:09:67:c2:42:ab:e8:b7:f4:5e:a1:f4:8d:
        23:28:a9:ba:83:24:26:6d:49:de:00:91:77:24:20:ec:2e:88:
        af:a8:14:dd
-----BEGIN CERTIFICATE-----
MIIDmzCCAoOgAwIBAgIICSw0XYoOdhMwDQYJKoZIhvcNAQELBQAwMzELMAkGA1UE
BhMCVVMxETAPBgNVBAcTCENsb3ZlckNBMREwDwYDVQQKEwhDbG92ZXJDQTAgFw0x
MzExMjQyMDI4MjJaGA8yMTkzMDQyOTIwMjgyMlowNzELMAkGA1UEBhMCVVMxEzAR
BgNVBAcTCkNsb3Zlck9DU1AxEzARBgNVBAoTCkNsb3Zlck9DU1AwggEiMA0GCSqG
SIb3DQEBAQUAA4IBDwAwggEKAoIBAQDHjbiEOI8iOOhIEV2jgFKUzrhCyRsbJlNb
IynqdHolaRo0MCUrdERsCwE7ZJz9uhzl6qaNw0JhgNVv43CS+up3Q3IlSVntsEh6
ziuhDPem0TwYx/VFiYil+PV0CPd2FrOnzsDdQyAoaz16jW10i96jUtIKgpM9wic/
pAnNYoWDUXtgwGJ4pLMe6IVPizczbR8nDcyydpUwC38EHiDrGNYr64jd4Wql+Ca6
1O2JHOXwXEQSh3yZqJ48VvTDvMjna+KUDYyZSieqheR5dZrg5+hbki9MhF57QAMo
0ewkcgMcz8GBQTD17MB8pcFnyZlsqiPaNMnUqbamQQzpbbRaMDYnAgMBAAGjgaww
gakwHQYDVR0OBBYEFLDQ6tKWSuC01p5VEQzwgTfQcAIGMB8GA1UdIwQYMBaAFGfe
76mpRd/M4hI/8re/X7rDPIEJMAsGA1UdDwQEAwIB/jATBgNVHSUEDDAKBggrBgEF
BQcDCTAMBgNVHRMEBTADAQH/MCYGCWCGSAGG+EIBDQQZFhdDbG92ZXIgT0NTUCBD
ZXJ0aWZpY2F0ZTAPBgkrBgEFBQcwAQUEAgUAMA0GCSqGSIb3DQEBCwUAA4IBAQA+
uZxlGi1xJQY1Lj5SR38xV3v35+S4hFGJibvakKZ/vHtSXmu0mhtsM32U1mKuakDs
hKAgdf7sVsBRpRYsck9MankjuvgGWWl2JgXucNz5LShg5ZB0cfFKpr9g9pa9mmCq
UaUFTbEFybJrxKePU5mA8+jGxcyiXOj4Gep/26r5bQfbeVu6fo2kNPpPP/SGFevh
nDnEBATrfhrr0Qr2V6MRhnaHyt19Rp803k6AxELQlfwiNcnQcaci77+NgXAEWouf
5OJtUYAFkDiN4NQci+ziisE27+ClBKFjC1SrwDsJZ8JCq+i39F6h9I0jKKm6gyQm
bUneAJF3JCDsLoivqBTd
-----END CERTIFICATE-----
